; Function Attrs: mustprogress nounwind uwtable
define dso_local void @_ZN4llvm8AsmLexer11ReturnErrorEPKcRKNSt7__cxx1112basic_stringIcSt11char_traitsIcESaIcEEE(ptr dead_on_unwind noalias nocapture writable writeonly sret(%"class.llvm::AsmToken") align 8 %0, ptr noundef nonnull align 8 dereferenceable(180) %1, ptr noundef %2, ptr noundef nonnull align 8 dereferenceable(32) %3) local_unnamed_addr #0 align 2 {
  %5 = getelementptr inbounds nuw i8, ptr %1, i64 64
  store ptr %2, ptr %5, align 8
  %6 = getelementptr inbounds nuw i8, ptr %1, i64 72
  %7 = tail call noundef nonnull align 8 dereferenceable(32) ptr @_ZNSt7__cxx1112basic_stringIcSt11char_traitsIcESaIcEEaSERKS4_(ptr noundef nonnull align 8 dereferenceable(32) %6, ptr noundef nonnull align 8 dereferenceable(32) %3) #20
  %8 = getelementptr inbounds nuw i8, ptr %1, i64 152
  %9 = load ptr, ptr %8, align 8
  %10 = ptrtoint ptr %9 to i64
  %11 = ptrtoint ptr %2 to i64
  %12 = sub i64 %10, %11
  store i32 1, ptr %0, align 8
  %13 = getelementptr inbounds nuw i8, ptr %0, i64 8
  store ptr %2, ptr %13, align 8
  %.sroa.2.0..sroa_idx.i = getelementptr inbounds i8, ptr %0, i64 16
  store i64 %12, ptr %.sroa.2.0..sroa_idx.i, align 8
  %14 = getelementptr inbounds nuw i8, ptr %0, i64 24
  %15 = getelementptr inbounds i8, ptr %0, i64 32
  store i32 64, ptr %15, align 8
  store i64 0, ptr %14, align 8
  ret void
}